(dp0
S'failed'
p1
(lp2
S'6'
p3
asS'source_names'
p4
(lp5
S'.'
p6
asS'ids'
p7
(dp8
I1
(S'/Users/jgorset/code/python/libraries/fandjango/tests/test_fandjango.py'
p9
S'tests.test_fandjango'
p10
S'test_method_override'
p11
tp12
sI2
(S'/Users/jgorset/code/python/libraries/fandjango/tests/test_fandjango.py'
p13
g10
S'test_application_authorization'
p14
tp15
sI3
(S'/Users/jgorset/code/python/libraries/fandjango/tests/test_fandjango.py'
p16
g10
S'test_authorization_denied'
p17
tp18
sI4
(S'/Users/jgorset/code/python/libraries/fandjango/tests/test_fandjango.py'
p19
g10
S'test_application_deauthorization'
p20
tp21
sI5
(S'/Users/jgorset/code/python/libraries/fandjango/tests/test_fandjango.py'
p22
g10
S'test_signed_request_renewal'
p23
tp24
sI6
(S'/Users/jgorset/code/python/libraries/fandjango/tests/test_fandjango.py'
p25
g10
S'test_registration'
p26
tp27
sI7
(S'/Users/jgorset/code/python/libraries/fandjango/tests/test_fandjango.py'
p28
g10
S'test_user_details'
p29
tp30
sI8
(S'/Users/jgorset/code/python/libraries/fandjango/tests/test_fandjango.py'
p31
g10
S'test_user_synchronization'
p32
tp33
ss.